; Function Attrs: nounwind uwtable
define void @av_log_format_line(ptr noundef %0, i32 noundef %1, ptr noundef %2, ptr noundef %3, ptr noundef writeonly captures(none) %4, i32 noundef %5, ptr noundef captures(none) %6) local_unnamed_addr #1 {
  %8 = alloca [5 x %struct.AVBPrint], align 16
  call void @llvm.lifetime.start.p0(i64 5120, ptr nonnull %8) #14
  call fastcc void @format_line(ptr noundef %0, i32 noundef %1, ptr noundef %2, ptr noundef %3, ptr noundef %8, ptr noundef %6, ptr noundef null)
  %9 = sext i32 %5 to i64
  %10 = load ptr, ptr %8, align 16, !tbaa !15
  %11 = getelementptr inbounds nuw i8, ptr %8, i64 1024
  %12 = load ptr, ptr %11, align 16, !tbaa !15
  %13 = getelementptr inbounds nuw i8, ptr %8, i64 2048
  %14 = load ptr, ptr %13, align 16, !tbaa !15
  %15 = getelementptr inbounds nuw i8, ptr %8, i64 3072
  %16 = load ptr, ptr %15, align 16, !tbaa !15
  %17 = call i32 (ptr, i64, ptr, ...) @snprintf(ptr noundef %4, i64 noundef %9, ptr noundef nonnull @.str, ptr noundef %10, ptr noundef %12, ptr noundef %14, ptr noundef %16) #14
  %18 = call i32 @av_bprint_finalize(ptr noundef nonnull %15, ptr noundef null) #14
  call void @llvm.lifetime.end.p0(i64 5120, ptr nonnull %8) #14
  ret void
}